c__builtin__
set
p1
((lp2
S'__REQ___URL___PATH_/'
p3
aS'__REQ___URL___PATH_/js/jquery.nicescroll.js'
p4
aS'__REQ___METHOD_POST'
p5
aS'__REQ___URL___NETLOC_'
p6
aS'__REFER___PATH_/css/main.css" "Mozilla/5.0 (X11; Linux x86_64; rv:45.0) Gecko/20100101 Firefox/45.0'
p7
aS'__REFER___PATH_/" "Mozilla/5.0 (X11; Linux x86_64; rv:45.0) Gecko/20100101 Firefox/45.0'
p8
aS'__REQ___URL___PATH_/images/top-quote.png'
p9
aS'__REFER___PATH_/css/main.css" "Mozilla/5.0 (X11; Linux x86_64; rv:38.0) Gecko/20100101 Firefox/38.0'
p10
aS'__REFER___NETLOC_hadoop-serv'
p11
aS'__REQ___URL___PATH_/images/office-view.jpg'
p12
aS'__REQ___URL___PATH_/css/main.css'
p13
aS'__REQ___URL___PATH_/images/bottom-quote.png'
p14
aS'__CODE_403'
p15
aS'__REQ___URL___PATH_/images/layout/slider2.jpg'
p16
aS'__REFER___SCHEME_http'
p17
aS'__REFER___PATH_/css/custom-glyphs.css" "Mozilla/5.0 (X11; Linux x86_64; rv:45.0) Gecko/20100101 Firefox/45.0'
p18
aS'__REFER___PATH_/" "Mozilla/5.0 (X11; Linux x86_64; rv:38.0) Gecko/20100101 Firefox/38.0'
p19
aS'__REQ___URL___PATH_/images/logo.png'
p20
aS'__REQ___URL___PATH_/js/modernizr.js'
p21
aS'__REQ___URL___PATH_/images/inner-logo.png'
p22
aS'__REQ___URL___PATH_/css/fonts/webhostinghub-glyphs.ttf'
p23
aS'__REQ___URL___PATH_/images/layout/slider3.jpg'
p24
aS'__REFER___PATH_-" "Mozilla/5.0 (X11; Linux x86_64; rv:38.0) Gecko/20100101 Firefox/38.0'
p25
aS'__REFER___SCHEME_'
p26
aS'__REQ___URL___PATH_/js/timer.js'
p27
aS'__UA_EMPTY'
p28
aS'__REQ___HTTP_VER_HTTP/1.1'
p29
aS'__REQ___HTTP_VER_HTTP/1.0'
p30
aS'__REQ___URL___PATH_/css/animate.css'
p31
aS'__REQ___URL___SCHEME_'
p32
aS'__REFER___PATH_-" "-'
p33
aS'__REFER___PATH_-" "Mozilla/5.0 (Windows NT 6.1; WOW64) AppleWebKit/537.36 (KHTML, like Gecko) Chrome/53.0.2785.116 Safari/537.36'
p34
aS'__REFER___NETLOC_192.168.0.100'
p35
aS'__REFER___PATH_/" "Mozilla/5.0 (Windows NT 6.1; WOW64) AppleWebKit/537.36 (KHTML, like Gecko) Chrome/53.0.2785.116 Safari/537.36'
p36
aS'__REQ___URL___PATH_/js/main.js'
p37
aS'__REQ___URL___PATH_/js/jquery.min.js'
p38
aS'__REQ___URL___PATH_/images/layout/slider1.jpg'
p39
aS'__REQ___URL___PATH_/contact.php'
p40
aS'__REQ___URL___PATH_/js/jquery.tooltipster.min.js'
p41
aS'__REQ___METHOD_GET'
p42
aS'__REQ___URL___PATH_/js/lib/bootstrap.min.js'
p43
aS'__REFER___NETLOC_'
p44
aS'__REFER___PATH_/css/custom-glyphs.css" "Mozilla/5.0 (X11; Linux x86_64; rv:38.0) Gecko/20100101 Firefox/38.0'
p45
aS'__REQ___URL___PATH_/images/triangle.png'
p46
aS'__REFER___PATH_/css/main.css" "Mozilla/5.0 (Windows NT 6.1; WOW64) AppleWebKit/537.36 (KHTML, like Gecko) Chrome/53.0.2785.116 Safari/537.36'
p47
aS'__REFER___PATH_-" "Mozilla/5.0 (X11; Linux x86_64; rv:45.0) Gecko/20100101 Firefox/45.0'
p48
aS'__REQ___URL___PATH_/js/jquery.backstretch.min.js'
p49
aS'__REQ___URL___PATH_/css/custom-glyphs.css'
p50
aS'__REFER___PATH_TOO_LONG'
p51
aS'__REQ___URL___PATH_/js/classie.js'
p52
atRp53
.